; Function Attrs: mustprogress nounwind uwtable
define dso_local void @_ZN3net14QuicSpdyStreamD2Ev(ptr noundef nonnull align 8 dereferenceable(664) %this) unnamed_addr #3 align 2 personality ptr @__gxx_personality_v0 {
entry:
  store ptr getelementptr inbounds ({ [33 x ptr] }, ptr @_ZTVN3net14QuicSpdyStreamE, i64 0, i32 0, i64 2), ptr %this, align 8
  %spdy_session_ = getelementptr inbounds i8, ptr %this, i64 384
  %0 = load ptr, ptr %spdy_session_, align 8
  %cmp.not = icmp eq ptr %0, null
  br i1 %cmp.not, label %if.end, label %if.then

if.then:                                          ; preds = %entry
  %id_.i = getelementptr inbounds i8, ptr %this, i64 216
  %1 = load i32, ptr %id_.i, align 8
  invoke void @_ZN3net15QuicSpdySession24UnregisterStreamPriorityEj(ptr noundef nonnull align 8 dereferenceable(2057) %0, i32 noundef %1)
          to label %if.end unwind label %terminate.lpad

if.end:                                           ; preds = %if.then, %entry
  %received_trailers_ = getelementptr inbounds i8, ptr %this, i64 576
  tail call void @_ZN3net15SpdyHeaderBlockD1Ev(ptr noundef nonnull align 8 dereferenceable(88) %received_trailers_) #12
  %decompressed_trailers_ = getelementptr inbounds i8, ptr %this, i64 544
  tail call void @_ZNSt7__cxx1112basic_stringIcSt11char_traitsIcESaIcEED1Ev(ptr noundef nonnull align 8 dereferenceable(32) %decompressed_trailers_) #12
  %header_list_ = getelementptr inbounds i8, ptr %this, i64 440
  tail call void @_ZN3net14QuicHeaderListD1Ev(ptr noundef nonnull align 8 dereferenceable(96) %header_list_) #12
  %decompressed_headers_ = getelementptr inbounds i8, ptr %this, i64 408
  tail call void @_ZNSt7__cxx1112basic_stringIcSt11char_traitsIcESaIcEED1Ev(ptr noundef nonnull align 8 dereferenceable(32) %decompressed_headers_) #12
  tail call void @_ZN3net18ReliableQuicStreamD2Ev(ptr noundef nonnull align 8 dereferenceable(377) %this) #12
  ret void

terminate.lpad:                                   ; preds = %if.then
  %2 = landingpad { ptr, i32 }
          catch ptr null
  %3 = extractvalue { ptr, i32 } %2, 0
  tail call void @__clang_call_terminate(ptr %3) #13
  unreachable
}